target datalayout = "e-m:e-p270:32:32-p271:32:32-p272:64:64-i64:64-i128:128-f80:128-n8:16:32:64-S128"
target triple = "x86_64-pc-linux-gnu"

%struct.Curl_cwtype = type { ptr, ptr, ptr, ptr, ptr, i64 }
%struct.curl_trc_feat = type { ptr, i32 }
%struct.Curl_cwriter = type { ptr, ptr, ptr, i32 }
%struct.cw_out_ctx = type { %struct.Curl_cwriter, ptr, i8 }
%struct.Curl_easy = type { i32, i64, i64, ptr, %struct.Curl_llist_node, %struct.Curl_llist_node, i32, i32, %struct.Curl_message, %struct.easy_pollset, %struct.Names, ptr, ptr, ptr, ptr, %struct.SingleRequest, %struct.UserDefined, ptr, ptr, ptr, %struct.Progress, %struct.UrlState, ptr, %struct.PureInfo, %struct.curl_tlssessioninfo }
%struct.Curl_llist_node = type { ptr, ptr, ptr, ptr }
%struct.Curl_message = type { %struct.Curl_llist_node, %struct.CURLMsg }
%struct.CURLMsg = type { i32, ptr, %union.anon }
%union.anon = type { ptr }
%struct.easy_pollset = type { [5 x i32], i32, [5 x i8] }
%struct.Names = type { ptr, i32 }
%struct.SingleRequest = type <{ i64, i64, i64, i64, %struct.curltime, i32, i32, i32, i32, i64, i32, i32, i8, i8, [2 x i8], i32, ptr, ptr, %struct.bufq, i64, i64, ptr, ptr, %union.anon.0, ptr, i8, i32, [3 x i8] }>
%struct.curltime = type { i64, i32 }
%struct.bufq = type { ptr, ptr, ptr, ptr, i64, i64, i64, i32 }
%union.anon.0 = type { ptr }
%struct.UserDefined = type <{ ptr, ptr, ptr, ptr, ptr, ptr, i64, i64, i64, ptr, ptr, i64, ptr, ptr, ptr, ptr, ptr, ptr, ptr, ptr, ptr, ptr, ptr, ptr, ptr, ptr, ptr, ptr, ptr, ptr, ptr, ptr, ptr, ptr, ptr, i64, i64, i64, i64, i64, i64, i64, i64, i64, ptr, ptr, %struct.curl_mimepart, ptr, ptr, ptr, i64, %struct.ssl_config_data, %struct.ssl_config_data, ptr, i16, i8, i8, %struct.ssl_general_config, i32, i32, i32, [4 x i8], ptr, ptr, i64, i32, i8, i8, i8, i8, ptr, ptr, ptr, i32, [4 x i8], [74 x ptr], [8 x ptr], i32, i32, i32, [4 x i8], ptr, i32, [4 x i8], ptr, ptr, ptr, ptr, ptr, i32, i32, i32, i32, i32, i32, i32, i32, i64, ptr, ptr, i64, ptr, i64, ptr, ptr, ptr, ptr, i32, i16, i16, i16, i8, i8, i8, i8, i8, i8, i8, i8, i64, [6 x i8] }>
%struct.curl_mimepart = type { ptr, ptr, i32, i32, ptr, ptr, ptr, ptr, ptr, ptr, ptr, ptr, ptr, ptr, ptr, i64, %struct.mime_state, ptr, %struct.mime_encoder_state, i64 }
%struct.mime_state = type { i32, ptr, i64 }
%struct.mime_encoder_state = type { i64, i64, i64, [256 x i8] }
%struct.ssl_config_data = type { %struct.ssl_primary_config, i64, ptr, ptr, ptr, ptr, ptr, ptr, ptr, i16 }
%struct.ssl_primary_config = type { ptr, ptr, ptr, ptr, ptr, ptr, ptr, ptr, ptr, ptr, ptr, ptr, ptr, ptr, i8, i32, i8, i8 }
%struct.ssl_general_config = type { i32 }
%struct.Progress = type { i64, %struct.pgrs_dir, %struct.pgrs_dir, i64, i64, i32, i32, i64, i64, i64, i64, i64, i64, i64, i64, i64, %struct.curltime, %struct.curltime, %struct.curltime, %struct.curltime, %struct.curltime, [6 x i64], [6 x %struct.curltime], i32, i8 }
%struct.pgrs_dir = type { i64, i64, i64, %struct.pgrs_measure }
%struct.pgrs_measure = type { %struct.curltime, i64 }
%struct.UrlState = type { %struct.curltime, i64, i64, %struct.dynbuf, ptr, i64, ptr, i32, i32, i32, ptr, i32, i64, i32, ptr, %struct.digestdata, %struct.digestdata, %struct.auth, %struct.auth, %struct.Curl_async, ptr, i8, %struct.curltime, %struct.Curl_tree, %struct.Curl_llist, [15 x %struct.time_node], ptr, ptr, i64, i64, i64, i64, [32 x i8], i64, ptr, ptr, ptr, %struct.urlpieces, ptr, ptr, ptr, ptr, ptr, i64, %struct.dynbuf, %struct.Curl_llist, [2 x %struct.curl_header], ptr, i32, ptr, ptr, %struct.store_netrc, %struct.dynamically_allocated_data, i8, i8, i8, i8, i32 }
%struct.digestdata = type { ptr, ptr, ptr, ptr, ptr, ptr, i32, i8, i8 }
%struct.auth = type { i64, i64, i64, i8 }
%struct.Curl_async = type { ptr, ptr, ptr, ptr, i32, i32, i8 }
%struct.Curl_tree = type { ptr, ptr, ptr, ptr, %struct.curltime, ptr }
%struct.time_node = type { %struct.Curl_llist_node, %struct.curltime, i32 }
%struct.urlpieces = type { ptr, ptr, ptr, ptr, ptr, ptr, ptr, ptr }
%struct.dynbuf = type { ptr, i64, i64, i64 }
%struct.Curl_llist = type { ptr, ptr, ptr, i64 }
%struct.curl_header = type { ptr, ptr, i64, i64, i32, ptr }
%struct.store_netrc = type { %struct.dynbuf, ptr, i8 }
%struct.dynamically_allocated_data = type { ptr, ptr, ptr, ptr, ptr, ptr, ptr, ptr, ptr, ptr, ptr, ptr, ptr, ptr }
%struct.PureInfo = type { i32, i32, i32, i64, i64, i64, i64, i64, i64, i64, ptr, ptr, i64, i32, %struct.ip_quadruple, i32, ptr, i32, %struct.curl_certinfo, i32, i8 }
%struct.ip_quadruple = type { [46 x i8], [46 x i8], i32, i32 }
%struct.curl_certinfo = type { i32, ptr }
%struct.curl_tlssessioninfo = type { i32, ptr }
%struct.cw_out_buf = type { ptr, %struct.dynbuf, i32 }

@Curl_cwt_out = hidden global %struct.Curl_cwtype { ptr @.str, ptr null, ptr @cw_out_init, ptr @cw_out_write, ptr @cw_out_close, i64 48 }, align 8
@Curl_trc_feat_write = external global %struct.curl_trc_feat, align 8
@.str.4 = private unnamed_addr constant [15 x i8] c"cw-out unpause\00", align 1
@Curl_cfree = external global ptr, align 8

; Function Attrs: nounwind uwtable
define internal void @cw_out_buf_free(ptr noundef %0) #0 {
  %2 = alloca ptr, align 8
  store ptr %0, ptr %2, align 8, !tbaa !97
  %3 = load ptr, ptr %2, align 8, !tbaa !97
  %4 = icmp ne ptr %3, null
  br i1 %4, label %5, label %10

5:                                                ; preds = %1
  %6 = load ptr, ptr %2, align 8, !tbaa !97
  %7 = getelementptr inbounds nuw %struct.cw_out_buf, ptr %6, i32 0, i32 1
  call void @Curl_dyn_free(ptr noundef %7)
  %8 = load ptr, ptr @Curl_cfree, align 8, !tbaa !100
  %9 = load ptr, ptr %2, align 8, !tbaa !97
  call void %8(ptr noundef %9)
  br label %10

10:                                               ; preds = %5, %1
  ret void
}

; Function Attrs: nounwind uwtable
define internal void @cw_out_bufs_free(ptr noundef %0) #0 {
  %2 = alloca ptr, align 8
  %3 = alloca ptr, align 8
  store ptr %0, ptr %2, align 8, !tbaa !14
  br label %4

4:                                                ; preds = %9, %1
  %5 = load ptr, ptr %2, align 8, !tbaa !14
  %6 = getelementptr inbounds nuw %struct.cw_out_ctx, ptr %5, i32 0, i32 1
  %7 = load ptr, ptr %6, align 8, !tbaa !16
  %8 = icmp ne ptr %7, null
  br i1 %8, label %9, label %21

9:                                                ; preds = %4
  call void @llvm.lifetime.start.p0(i64 8, ptr %3) #3
  %10 = load ptr, ptr %2, align 8, !tbaa !14
  %11 = getelementptr inbounds nuw %struct.cw_out_ctx, ptr %10, i32 0, i32 1
  %12 = load ptr, ptr %11, align 8, !tbaa !16
  %13 = getelementptr inbounds nuw %struct.cw_out_buf, ptr %12, i32 0, i32 0
  %14 = load ptr, ptr %13, align 8, !tbaa !95
  store ptr %14, ptr %3, align 8, !tbaa !97
  %15 = load ptr, ptr %2, align 8, !tbaa !14
  %16 = getelementptr inbounds nuw %struct.cw_out_ctx, ptr %15, i32 0, i32 1
  %17 = load ptr, ptr %16, align 8, !tbaa !16
  call void @cw_out_buf_free(ptr noundef %17)
  %18 = load ptr, ptr %3, align 8, !tbaa !97
  %19 = load ptr, ptr %2, align 8, !tbaa !14
  %20 = getelementptr inbounds nuw %struct.cw_out_ctx, ptr %19, i32 0, i32 1
  store ptr %18, ptr %20, align 8, !tbaa !16
  call void @llvm.lifetime.end.p0(i64 8, ptr %3) #3
  br label %4, !llvm.loop !98

21:                                               ; preds = %4
  ret void
}

; Function Attrs: nounwind uwtable
define internal i32 @cw_out_flush(ptr noundef %0, i1 noundef zeroext %1, i1 noundef zeroext %2) #0 {
  %4 = alloca i32, align 4
  %5 = alloca ptr, align 8
  %6 = alloca i8, align 1
  %7 = alloca i8, align 1
  %8 = alloca ptr, align 8
  %9 = alloca i32, align 4
  %10 = alloca ptr, align 8
  %11 = alloca i32, align 4
  store ptr %0, ptr %5, align 8, !tbaa !3
  %12 = zext i1 %1 to i8
  store i8 %12, ptr %6, align 1, !tbaa !24
  %13 = zext i1 %2 to i8
  store i8 %13, ptr %7, align 1, !tbaa !24
  call void @llvm.lifetime.start.p0(i64 8, ptr %8) #3
  call void @llvm.lifetime.start.p0(i64 4, ptr %9) #3
  store i32 0, ptr %9, align 4, !tbaa !19
  %14 = load ptr, ptr %5, align 8, !tbaa !3
  %15 = call ptr @Curl_cwriter_get_by_type(ptr noundef %14, ptr noundef @Curl_cwt_out)
  store ptr %15, ptr %8, align 8, !tbaa !8
  %16 = load ptr, ptr %8, align 8, !tbaa !8
  %17 = icmp ne ptr %16, null
  br i1 %17, label %18, label %74

18:                                               ; preds = %3
  call void @llvm.lifetime.start.p0(i64 8, ptr %10) #3
  %19 = load ptr, ptr %8, align 8, !tbaa !8
  store ptr %19, ptr %10, align 8, !tbaa !14
  %20 = load ptr, ptr %10, align 8, !tbaa !14
  %21 = getelementptr inbounds nuw %struct.cw_out_ctx, ptr %20, i32 0, i32 2
  %22 = load i8, ptr %21, align 8
  %23 = lshr i8 %22, 1
  %24 = and i8 %23, 1
  %25 = zext i8 %24 to i32
  %26 = icmp ne i32 %25, 0
  br i1 %26, label %27, label %28

27:                                               ; preds = %18
  store i32 23, ptr %4, align 4
  store i32 1, ptr %11, align 4
  br label %71

28:                                               ; preds = %18
  %29 = load i8, ptr %6, align 1, !tbaa !24, !range !26, !noundef !27
  %30 = trunc i8 %29 to i1
  br i1 %30, label %31, label %44

31:                                               ; preds = %28
  %32 = load ptr, ptr %10, align 8, !tbaa !14
  %33 = getelementptr inbounds nuw %struct.cw_out_ctx, ptr %32, i32 0, i32 2
  %34 = load i8, ptr %33, align 8
  %35 = and i8 %34, 1
  %36 = zext i8 %35 to i32
  %37 = icmp ne i32 %36, 0
  br i1 %37, label %38, label %44

38:                                               ; preds = %31
  %39 = load ptr, ptr %10, align 8, !tbaa !14
  %40 = getelementptr inbounds nuw %struct.cw_out_ctx, ptr %39, i32 0, i32 2
  %41 = load i8, ptr %40, align 8
  %42 = and i8 %41, -2
  %43 = or i8 %42, 0
  store i8 %43, ptr %40, align 8
  br label %44

44:                                               ; preds = %38, %31, %28
  %45 = load ptr, ptr %10, align 8, !tbaa !14
  %46 = getelementptr inbounds nuw %struct.cw_out_ctx, ptr %45, i32 0, i32 2
  %47 = load i8, ptr %46, align 8
  %48 = and i8 %47, 1
  %49 = zext i8 %48 to i32
  %50 = icmp ne i32 %49, 0
  br i1 %50, label %51, label %52

51:                                               ; preds = %44
  store i32 0, ptr %4, align 4
  store i32 1, ptr %11, align 4
  br label %71

52:                                               ; preds = %44
  %53 = load ptr, ptr %10, align 8, !tbaa !14
  %54 = load ptr, ptr %5, align 8, !tbaa !3
  %55 = load ptr, ptr %10, align 8, !tbaa !14
  %56 = getelementptr inbounds nuw %struct.cw_out_ctx, ptr %55, i32 0, i32 1
  %57 = load i8, ptr %7, align 1, !tbaa !24, !range !26, !noundef !27
  %58 = trunc i8 %57 to i1
  %59 = call i32 @cw_out_flush_chain(ptr noundef %53, ptr noundef %54, ptr noundef %56, i1 noundef zeroext %58)
  store i32 %59, ptr %9, align 4, !tbaa !19
  %60 = load i32, ptr %9, align 4, !tbaa !19
  %61 = icmp ne i32 %60, 0
  br i1 %61, label %62, label %70

62:                                               ; preds = %52
  %63 = load ptr, ptr %10, align 8, !tbaa !14
  %64 = getelementptr inbounds nuw %struct.cw_out_ctx, ptr %63, i32 0, i32 2
  %65 = load i8, ptr %64, align 8
  %66 = and i8 %65, -3
  %67 = or i8 %66, 2
  store i8 %67, ptr %64, align 8
  %68 = load ptr, ptr %10, align 8, !tbaa !14
  call void @cw_out_bufs_free(ptr noundef %68)
  %69 = load i32, ptr %9, align 4, !tbaa !19
  store i32 %69, ptr %4, align 4
  store i32 1, ptr %11, align 4
  br label %71

70:                                               ; preds = %52
  store i32 0, ptr %11, align 4
  br label %71

71:                                               ; preds = %70, %62, %51, %27
  call void @llvm.lifetime.end.p0(i64 8, ptr %10) #3
  %72 = load i32, ptr %11, align 4
  switch i32 %72, label %76 [
    i32 0, label %73
  ]

73:                                               ; preds = %71
  br label %74

74:                                               ; preds = %73, %3
  %75 = load i32, ptr %9, align 4, !tbaa !19
  store i32 %75, ptr %4, align 4
  store i32 1, ptr %11, align 4
  br label %76

76:                                               ; preds = %74, %71
  call void @llvm.lifetime.end.p0(i64 4, ptr %9) #3
  call void @llvm.lifetime.end.p0(i64 8, ptr %8) #3
  %77 = load i32, ptr %4, align 4
  ret i32 %77
}

; Function Attrs: nounwind uwtable
define hidden i32 @Curl_cw_out_unpause(ptr noundef %0) #0 {
  %2 = alloca ptr, align 8
  store ptr %0, ptr %2, align 8, !tbaa !3
  br label %3

3:                                                ; preds = %1
  %4 = load ptr, ptr %2, align 8, !tbaa !3
  %5 = icmp ne ptr %4, null
  br i1 %5, label %6, label %34

6:                                                ; preds = %3
  %7 = load ptr, ptr %2, align 8, !tbaa !3
  %8 = getelementptr inbounds nuw %struct.Curl_easy, ptr %7, i32 0, i32 16
  %9 = getelementptr inbounds nuw %struct.UserDefined, ptr %8, i32 0, i32 119
  %10 = load i64, ptr %9, align 2
  %11 = lshr i64 %10, 31
  %12 = and i64 %11, 1
  %13 = trunc i64 %12 to i32
  %14 = icmp ne i32 %13, 0
  br i1 %14, label %15, label %34

15:                                               ; preds = %6
  %16 = load ptr, ptr %2, align 8, !tbaa !3
  %17 = getelementptr inbounds nuw %struct.Curl_easy, ptr %16, i32 0, i32 21
  %18 = getelementptr inbounds nuw %struct.UrlState, ptr %17, i32 0, i32 50
  %19 = load ptr, ptr %18, align 8, !tbaa !28
  %20 = icmp ne ptr %19, null
  br i1 %20, label %21, label %29

21:                                               ; preds = %15
  %22 = load ptr, ptr %2, align 8, !tbaa !3
  %23 = getelementptr inbounds nuw %struct.Curl_easy, ptr %22, i32 0, i32 21
  %24 = getelementptr inbounds nuw %struct.UrlState, ptr %23, i32 0, i32 50
  %25 = load ptr, ptr %24, align 8, !tbaa !28
  %26 = getelementptr inbounds nuw %struct.curl_trc_feat, ptr %25, i32 0, i32 1
  %27 = load i32, ptr %26, align 8, !tbaa !93
  %28 = icmp sge i32 %27, 1
  br i1 %28, label %29, label %34

29:                                               ; preds = %21, %15
  %30 = load i32, ptr getelementptr inbounds nuw (%struct.curl_trc_feat, ptr @Curl_trc_feat_write, i32 0, i32 1), align 8, !tbaa !93
  %31 = icmp sge i32 %30, 1
  br i1 %31, label %32, label %34

32:                                               ; preds = %29
  %33 = load ptr, ptr %2, align 8, !tbaa !3
  call void (ptr, ptr, ...) @Curl_trc_write(ptr noundef %33, ptr noundef @.str.4)
  br label %34

34:                                               ; preds = %32, %29, %21, %6, %3
  br label %35

35:                                               ; preds = %34
  %36 = load ptr, ptr %2, align 8, !tbaa !3
  %37 = call i32 @cw_out_flush(ptr noundef %36, i1 noundef zeroext true, i1 noundef zeroext false)
  ret i32 %37
}