; Function Attrs: nounwind uwtable
define hidden i32 @Curl_cw_out_unpause(ptr noundef %0) local_unnamed_addr #1 {
  %.not = icmp eq ptr %0, null
  br i1 %.not, label %17, label %2

2:                                                ; preds = %1
  %3 = getelementptr inbounds nuw i8, ptr %0, i64 2658
  %4 = load i64, ptr %3, align 2
  %5 = and i64 %4, 2147483648
  %.not8 = icmp eq i64 %5, 0
  br i1 %.not8, label %17, label %6

6:                                                ; preds = %2
  %7 = getelementptr inbounds nuw i8, ptr %0, i64 4864
  %8 = load ptr, ptr %7, align 8, !tbaa !22
  %.not9 = icmp eq ptr %8, null
  br i1 %.not9, label %15, label %9

9:                                                ; preds = %6
  %10 = getelementptr inbounds nuw i8, ptr %8, i64 8
  %11 = load i32, ptr %10, align 8, !tbaa !86
  %12 = icmp sgt i32 %11, 0
  %13 = load i32, ptr getelementptr inbounds nuw (i8, ptr @Curl_trc_feat_write, i64 8), align 8
  %14 = icmp sgt i32 %13, 0
  %or.cond = select i1 %12, i1 %14, i1 false
  br i1 %or.cond, label %16, label %17

15:                                               ; preds = %6
  %.old = load i32, ptr getelementptr inbounds nuw (i8, ptr @Curl_trc_feat_write, i64 8), align 8, !tbaa !86
  %.old1 = icmp sgt i32 %.old, 0
  br i1 %.old1, label %16, label %17

16:                                               ; preds = %9, %15
  tail call void (ptr, ptr, ...) @Curl_trc_write(ptr noundef nonnull %0, ptr noundef nonnull @.str.4) #5
  br label %17

17:                                               ; preds = %1, %2, %9, %15, %16
  %18 = tail call ptr @Curl_cwriter_get_by_type(ptr noundef %0, ptr noundef nonnull @Curl_cwt_out) #5
  %.not.i = icmp eq ptr %18, null
  br i1 %.not.i, label %cw_out_flush.exit, label %19

19:                                               ; preds = %17
  %20 = getelementptr inbounds nuw i8, ptr %18, i64 40
  %21 = load i8, ptr %20, align 8
  %22 = and i8 %21, 2
  %.not24.i = icmp eq i8 %22, 0
  br i1 %.not24.i, label %23, label %cw_out_flush.exit

23:                                               ; preds = %19
  %24 = and i8 %21, 1
  %.not25.i.not = icmp eq i8 %24, 0
  br i1 %.not25.i.not, label %27, label %25

25:                                               ; preds = %23
  %26 = and i8 %21, -4
  store i8 %26, ptr %20, align 8
  br label %27

27:                                               ; preds = %25, %23
  %28 = phi i8 [ %26, %25 ], [ %21, %23 ]
  %29 = and i8 %28, 1
  %.not26.i = icmp eq i8 %29, 0
  br i1 %.not26.i, label %30, label %cw_out_flush.exit

30:                                               ; preds = %27
  %31 = getelementptr inbounds nuw i8, ptr %18, i64 32
  %32 = tail call fastcc i32 @cw_out_flush_chain(ptr noundef nonnull %18, ptr noundef %0, ptr noundef nonnull %31)
  %.not27.i = icmp eq i32 %32, 0
  br i1 %.not27.i, label %cw_out_flush.exit, label %33

33:                                               ; preds = %30
  %34 = load i8, ptr %20, align 8
  %35 = or i8 %34, 2
  store i8 %35, ptr %20, align 8
  %36 = load ptr, ptr %31, align 8, !tbaa !11
  %.not5.i.i = icmp eq ptr %36, null
  br i1 %.not5.i.i, label %cw_out_flush.exit, label %.lr.ph.i.i

.lr.ph.i.i:                                       ; preds = %33, %.lr.ph.i.i
  %37 = phi ptr [ %38, %.lr.ph.i.i ], [ %36, %33 ]
  %38 = load ptr, ptr %37, align 8, !tbaa !14
  %39 = getelementptr inbounds nuw i8, ptr %37, i64 8
  tail call void @Curl_dyn_free(ptr noundef nonnull %39) #5
  %40 = load ptr, ptr @Curl_cfree, align 8, !tbaa !19
  tail call void %40(ptr noundef nonnull %37) #5
  store ptr %38, ptr %31, align 8, !tbaa !11
  %.not.i.i = icmp eq ptr %38, null
  br i1 %.not.i.i, label %cw_out_flush.exit, label %.lr.ph.i.i, !llvm.loop !20

cw_out_flush.exit:                                ; preds = %.lr.ph.i.i, %17, %19, %27, %30, %33
  %.1.i = phi i32 [ 0, %17 ], [ 0, %30 ], [ %32, %33 ], [ 0, %27 ], [ 23, %19 ], [ %32, %.lr.ph.i.i ]
  ret i32 %.1.i
}